target datalayout = "e-m:e-p270:32:32-p271:32:32-p272:64:64-i64:64-i128:128-f80:128-n8:16:32:64-S128"
target triple = "x86_64-pc-linux-gnu"

%struct.VariableStatData = type { ptr, ptr, ptr, ptr, i32, i32, i32, i8, i8 }

; Function Attrs: inlinehint nounwind uwtable
define internal i64 @BoolGetDatum(i1 noundef zeroext %0) #1 {
  %2 = alloca i8, align 1
  %3 = zext i1 %0 to i8
  store i8 %3, ptr %2, align 1
  %4 = load i8, ptr %2, align 1, !range !4, !noundef !5
  %5 = trunc i8 %4 to i1
  %6 = select i1 %5, i32 1, i32 0
  %7 = sext i32 %6 to i64
  ret i64 %7
}

; Function Attrs: nounwind uwtable
define dso_local double @boolvarsel(ptr noundef %0, ptr noundef %1, i32 noundef %2) #0 {
  %4 = alloca ptr, align 8
  %5 = alloca ptr, align 8
  %6 = alloca i32, align 4
  %7 = alloca %struct.VariableStatData, align 8
  %8 = alloca double, align 8
  store ptr %0, ptr %4, align 8
  store ptr %1, ptr %5, align 8
  store i32 %2, ptr %6, align 4
  call void @llvm.lifetime.start.p0(i64 48, ptr %7) #10
  call void @llvm.lifetime.start.p0(i64 8, ptr %8) #10
  %9 = load ptr, ptr %4, align 8
  %10 = load ptr, ptr %5, align 8
  %11 = load i32, ptr %6, align 4
  call void @examine_variable(ptr noundef %9, ptr noundef %10, i32 noundef %11, ptr noundef %7)
  %12 = getelementptr inbounds nuw %struct.VariableStatData, ptr %7, i32 0, i32 2
  %13 = load ptr, ptr %12, align 8
  %14 = icmp ne ptr %13, null
  br i1 %14, label %15, label %18

15:                                               ; preds = %3
  %16 = call i64 @BoolGetDatum(i1 noundef zeroext true)
  %17 = call double @var_eq_const(ptr noundef %7, i32 noundef 91, i32 noundef 0, i64 noundef %16, i1 noundef zeroext false, i1 noundef zeroext true, i1 noundef zeroext false)
  store double %17, ptr %8, align 8
  br label %19

18:                                               ; preds = %3
  store double 5.000000e-01, ptr %8, align 8
  br label %19

19:                                               ; preds = %18, %15
  br label %20

20:                                               ; preds = %19
  %21 = getelementptr inbounds nuw %struct.VariableStatData, ptr %7, i32 0, i32 2
  %22 = load ptr, ptr %21, align 8
  %23 = icmp ne ptr %22, null
  br i1 %23, label %24, label %29

24:                                               ; preds = %20
  %25 = getelementptr inbounds nuw %struct.VariableStatData, ptr %7, i32 0, i32 3
  %26 = load ptr, ptr %25, align 8
  %27 = getelementptr inbounds nuw %struct.VariableStatData, ptr %7, i32 0, i32 2
  %28 = load ptr, ptr %27, align 8
  call void %26(ptr noundef %28)
  br label %29

29:                                               ; preds = %24, %20
  br label %30

30:                                               ; preds = %29
  br label %31

31:                                               ; preds = %30
  %32 = load double, ptr %8, align 8
  call void @llvm.lifetime.end.p0(i64 8, ptr %8) #10
  call void @llvm.lifetime.end.p0(i64 48, ptr %7) #10
  ret double %32
}