; Function Attrs: nounwind uwtable
define dso_local double @boolvarsel(ptr noundef %0, ptr noundef %1, i32 noundef %2) local_unnamed_addr #0 {
  %4 = alloca %struct.VariableStatData, align 8
  call void @llvm.lifetime.start.p0(i64 48, ptr nonnull %4) #12
  call void @examine_variable(ptr noundef %0, ptr noundef %1, i32 noundef %2, ptr noundef nonnull %4)
  %5 = getelementptr inbounds nuw i8, ptr %4, i64 16
  %6 = load ptr, ptr %5, align 8
  %.not = icmp eq ptr %6, null
  br i1 %.not, label %.thread, label %7

7:                                                ; preds = %3
  %8 = call double @var_eq_const(ptr noundef nonnull %4, i32 noundef 91, i32 noundef 0, i64 noundef 1, i1 noundef zeroext false, i1 noundef zeroext true, i1 noundef zeroext false)
  %.pr = load ptr, ptr %5, align 8
  %.not4 = icmp eq ptr %.pr, null
  br i1 %.not4, label %.thread, label %9

9:                                                ; preds = %7
  %10 = getelementptr inbounds nuw i8, ptr %4, i64 24
  %11 = load ptr, ptr %10, align 8
  call void %11(ptr noundef nonnull %.pr) #12
  br label %.thread

.thread:                                          ; preds = %3, %9, %7
  %.07 = phi double [ %8, %9 ], [ %8, %7 ], [ 5.000000e-01, %3 ]
  call void @llvm.lifetime.end.p0(i64 48, ptr nonnull %4) #12
  ret double %.07
}